; Function Attrs: nounwind uwtable
define ptr @l_Lean_Compiler_LCNF_Alt_forCodeM___at_Lean_Compiler_LCNF_JoinPointFinder_find_go___spec__5(ptr noundef %0, ptr noundef %1, ptr noundef %2, ptr noundef %3, ptr noundef %4, ptr noundef %5, ptr noundef %6, ptr noundef %7, ptr noundef %8, ptr noundef %9) local_unnamed_addr #1 {
  %11 = ptrtoint ptr %0 to i64
  %12 = and i64 %11, 1
  %.not.i34 = icmp eq i64 %12, 0
  br i1 %.not.i34, label %16, label %13

13:                                               ; preds = %10
  %14 = lshr i64 %11, 1
  %15 = trunc i64 %14 to i32
  br label %lean_obj_tag.exit

16:                                               ; preds = %10
  %17 = getelementptr i8, ptr %0, i64 4
  %.val.i = load i32, ptr %17, align 4
  %18 = lshr i32 %.val.i, 24
  br label %lean_obj_tag.exit

lean_obj_tag.exit:                                ; preds = %13, %16
  %.0.i = phi i32 [ %15, %13 ], [ %18, %16 ]
  %19 = icmp eq i32 %.0.i, 0
  br i1 %19, label %20, label %38

20:                                               ; preds = %lean_obj_tag.exit
  %21 = getelementptr inbounds nuw i8, ptr %0, i64 24
  %22 = load ptr, ptr %21, align 8, !tbaa !4
  %23 = ptrtoint ptr %22 to i64
  %24 = and i64 %23, 1
  %.not41 = icmp eq i64 %24, 0
  br i1 %.not41, label %25, label %lean_inc.exit30

25:                                               ; preds = %20
  %.val.i35 = load i32, ptr %22, align 4, !tbaa !8
  %26 = icmp sgt i32 %.val.i35, 0
  br i1 %26, label %27, label %29, !prof !11

27:                                               ; preds = %25
  %28 = add nuw i32 %.val.i35, 1
  store i32 %28, ptr %22, align 4, !tbaa !8
  br label %lean_inc.exit30

29:                                               ; preds = %25
  %.not.i36 = icmp eq i32 %.val.i35, 0
  br i1 %.not.i36, label %lean_inc.exit30, label %30

30:                                               ; preds = %29
  tail call void @lean_inc_ref_cold(ptr noundef nonnull %22) #5
  br label %lean_inc.exit30

lean_inc.exit30:                                  ; preds = %30, %29, %27, %20
  br i1 %.not.i34, label %31, label %lean_dec.exit31

31:                                               ; preds = %lean_inc.exit30
  %32 = load i32, ptr %0, align 4, !tbaa !8
  %33 = icmp sgt i32 %32, 1
  br i1 %33, label %34, label %36, !prof !11

34:                                               ; preds = %31
  %35 = add nsw i32 %32, -1
  store i32 %35, ptr %0, align 4, !tbaa !8
  br label %lean_dec.exit31

36:                                               ; preds = %31
  %.not.i = icmp eq i32 %32, 0
  br i1 %.not.i, label %lean_dec.exit31, label %37

37:                                               ; preds = %36
  tail call void @lean_dec_ref_cold(ptr noundef nonnull %0) #5
  br label %lean_dec.exit31

38:                                               ; preds = %lean_obj_tag.exit
  %39 = getelementptr inbounds nuw i8, ptr %0, i64 8
  %40 = load ptr, ptr %39, align 8, !tbaa !4
  %41 = ptrtoint ptr %40 to i64
  %42 = and i64 %41, 1
  %.not = icmp eq i64 %42, 0
  br i1 %.not, label %43, label %lean_inc.exit

43:                                               ; preds = %38
  %.val.i37 = load i32, ptr %40, align 4, !tbaa !8
  %44 = icmp sgt i32 %.val.i37, 0
  br i1 %44, label %45, label %47, !prof !11

45:                                               ; preds = %43
  %46 = add nuw i32 %.val.i37, 1
  store i32 %46, ptr %40, align 4, !tbaa !8
  br label %lean_inc.exit

47:                                               ; preds = %43
  %.not.i38 = icmp eq i32 %.val.i37, 0
  br i1 %.not.i38, label %lean_inc.exit, label %48

48:                                               ; preds = %47
  tail call void @lean_inc_ref_cold(ptr noundef nonnull %40) #5
  br label %lean_inc.exit

lean_inc.exit:                                    ; preds = %48, %47, %45, %38
  br i1 %.not.i34, label %49, label %lean_dec.exit31

49:                                               ; preds = %lean_inc.exit
  %50 = load i32, ptr %0, align 4, !tbaa !8
  %51 = icmp sgt i32 %50, 1
  br i1 %51, label %52, label %54, !prof !11

52:                                               ; preds = %49
  %53 = add nsw i32 %50, -1
  store i32 %53, ptr %0, align 4, !tbaa !8
  br label %lean_dec.exit31

54:                                               ; preds = %49
  %.not.i32 = icmp eq i32 %50, 0
  br i1 %.not.i32, label %lean_dec.exit31, label %55

55:                                               ; preds = %54
  tail call void @lean_dec_ref_cold(ptr noundef nonnull %0) #5
  br label %lean_dec.exit31

lean_dec.exit31:                                  ; preds = %lean_inc.exit, %52, %54, %55, %lean_inc.exit30, %34, %36, %37
  %.sink = phi ptr [ %22, %37 ], [ %22, %36 ], [ %22, %34 ], [ %22, %lean_inc.exit30 ], [ %40, %55 ], [ %40, %54 ], [ %40, %52 ], [ %40, %lean_inc.exit ]
  %56 = tail call ptr @lean_apply_9(ptr noundef %1, ptr noundef %.sink, ptr noundef %2, ptr noundef %3, ptr noundef %4, ptr noundef %5, ptr noundef %6, ptr noundef %7, ptr noundef %8, ptr noundef %9) #5
  ret ptr %56
}